; ModuleID = 'source-C-CXX/39/2984.c'
source_filename = "source-C-CXX/39/2984.c"
target datalayout = "e-m:e-p270:32:32-p271:32:32-p272:64:64-i64:64-f80:128-n8:16:32:64-S128"
target triple = "x86_64-pc-linux-gnu"

%struct._IO_FILE = type { i32, i8*, i8*, i8*, i8*, i8*, i8*, i8*, i8*, i8*, i8*, i8*, %struct._IO_marker*, %struct._IO_FILE*, i32, i32, i64, i16, i8, [1 x i8], i8*, i64, %struct._IO_codecvt*, %struct._IO_wide_data*, %struct._IO_FILE*, i8*, i64, i32, [20 x i8] }
%struct._IO_marker = type opaque
%struct._IO_codecvt = type opaque
%struct._IO_wide_data = type opaque

@.str = private unnamed_addr constant [3 x i8] c"%f\00", align 1
@.str.1 = private unnamed_addr constant [14 x i8] c"Invalid input\00", align 1
@.str.2 = private unnamed_addr constant [5 x i8] c"%.4f\00", align 1
@stdin = external local_unnamed_addr global %struct._IO_FILE*, align 8

; Function Attrs: nofree nounwind sspstrong uwtable
define dso_local i32 @main() local_unnamed_addr #0 {
  %1 = alloca float, align 4
  %2 = alloca float, align 4
  %3 = alloca float, align 4
  %4 = alloca float, align 4
  %5 = alloca float, align 4
  %6 = bitcast float* %1 to i8*
  call void @llvm.lifetime.start.p0i8(i64 4, i8* nonnull %6) #4
  %7 = bitcast float* %2 to i8*
  call void @llvm.lifetime.start.p0i8(i64 4, i8* nonnull %7) #4
  %8 = bitcast float* %3 to i8*
  call void @llvm.lifetime.start.p0i8(i64 4, i8* nonnull %8) #4
  %9 = bitcast float* %4 to i8*
  call void @llvm.lifetime.start.p0i8(i64 4, i8* nonnull %9) #4
  %10 = bitcast float* %5 to i8*
  call void @llvm.lifetime.start.p0i8(i64 4, i8* nonnull %10) #4
  %11 = call i32 (i8*, ...) @__isoc99_scanf(i8* getelementptr inbounds ([3 x i8], [3 x i8]* @.str, i64 0, i64 0), float* nonnull %1)
  %12 = call i32 (i8*, ...) @__isoc99_scanf(i8* getelementptr inbounds ([3 x i8], [3 x i8]* @.str, i64 0, i64 0), float* nonnull %2)
  %13 = call i32 (i8*, ...) @__isoc99_scanf(i8* getelementptr inbounds ([3 x i8], [3 x i8]* @.str, i64 0, i64 0), float* nonnull %3)
  %14 = call i32 (i8*, ...) @__isoc99_scanf(i8* getelementptr inbounds ([3 x i8], [3 x i8]* @.str, i64 0, i64 0), float* nonnull %4)
  %15 = call i32 (i8*, ...) @__isoc99_scanf(i8* getelementptr inbounds ([3 x i8], [3 x i8]* @.str, i64 0, i64 0), float* nonnull %5)
  %16 = load float, float* %1, align 4, !tbaa !5
  %17 = load float, float* %2, align 4, !tbaa !5
  %18 = fadd float %16, %17
  %19 = load float, float* %3, align 4, !tbaa !5
  %20 = fadd float %18, %19
  %21 = load float, float* %4, align 4, !tbaa !5
  %22 = fadd float %20, %21
  %23 = fmul float %22, 5.000000e-01
  %24 = load float, float* %5, align 4, !tbaa !5
  %25 = fdiv float %24, 1.800000e+02
  %26 = fmul float %25, 1.000000e+02
  %27 = fsub float %23, %16
  %28 = fsub float %23, %17
  %29 = fmul float %27, %28
  %30 = fsub float %23, %19
  %31 = fmul float %30, %29
  %32 = fsub float %23, %21
  %33 = fmul float %32, %31
  %34 = fpext float %33 to double
  %35 = fmul float %16, %17
  %36 = fmul float %35, %19
  %37 = fmul float %36, %21
  %38 = fpext float %37 to double
  %39 = fmul float %26, 5.000000e-01
  %40 = fpext float %39 to double
  %41 = call double @cos(double %40) #4
  %42 = fmul double %41, %38
  %43 = call double @cos(double %40) #4
  %44 = fmul double %42, %43
  %45 = fsub double %34, %44
  %46 = fptrunc double %45 to float
  %47 = fcmp olt float %46, 0.000000e+00
  br i1 %47, label %48, label %50

48:                                               ; preds = %0
  %49 = call i32 (i8*, ...) @printf(i8* nonnull dereferenceable(1) getelementptr inbounds ([14 x i8], [14 x i8]* @.str.1, i64 0, i64 0))
  br label %76

50:                                               ; preds = %0
  %51 = load float, float* %1, align 4, !tbaa !5
  %52 = fsub float %23, %51
  %53 = load float, float* %2, align 4, !tbaa !5
  %54 = fsub float %23, %53
  %55 = fmul float %52, %54
  %56 = load float, float* %3, align 4, !tbaa !5
  %57 = fsub float %23, %56
  %58 = fmul float %55, %57
  %59 = load float, float* %4, align 4, !tbaa !5
  %60 = fsub float %23, %59
  %61 = fmul float %58, %60
  %62 = fpext float %61 to double
  %63 = fmul float %51, %53
  %64 = fmul float %63, %56
  %65 = fmul float %64, %59
  %66 = fpext float %65 to double
  %67 = call double @cos(double %40) #4
  %68 = fmul double %67, %66
  %69 = call double @cos(double %40) #4
  %70 = fmul double %69, %68
  %71 = fsub double %62, %70
  %72 = call double @sqrt(double %71) #4
  %73 = fptrunc double %72 to float
  %74 = fpext float %73 to double
  %75 = call i32 (i8*, ...) @printf(i8* nonnull dereferenceable(1) getelementptr inbounds ([5 x i8], [5 x i8]* @.str.2, i64 0, i64 0), double %74)
  br label %76

76:                                               ; preds = %50, %48
  %77 = load %struct._IO_FILE*, %struct._IO_FILE** @stdin, align 8, !tbaa !9
  %78 = call i32 @getc(%struct._IO_FILE* %77) #4
  %79 = load %struct._IO_FILE*, %struct._IO_FILE** @stdin, align 8, !tbaa !9
  %80 = call i32 @getc(%struct._IO_FILE* %79) #4
  %81 = load %struct._IO_FILE*, %struct._IO_FILE** @stdin, align 8, !tbaa !9
  %82 = call i32 @getc(%struct._IO_FILE* %81) #4
  call void @llvm.lifetime.end.p0i8(i64 4, i8* nonnull %10) #4
  call void @llvm.lifetime.end.p0i8(i64 4, i8* nonnull %9) #4
  call void @llvm.lifetime.end.p0i8(i64 4, i8* nonnull %8) #4
  call void @llvm.lifetime.end.p0i8(i64 4, i8* nonnull %7) #4
  call void @llvm.lifetime.end.p0i8(i64 4, i8* nonnull %6) #4
  ret i32 0
}

; Function Attrs: argmemonly mustprogress nofree nosync nounwind willreturn
declare void @llvm.lifetime.start.p0i8(i64 immarg, i8* nocapture) #1

; Function Attrs: nofree nounwind
declare noundef i32 @__isoc99_scanf(i8* nocapture noundef readonly, ...) local_unnamed_addr #2

; Function Attrs: mustprogress nofree nounwind willreturn
declare double @cos(double) local_unnamed_addr #3

; Function Attrs: nofree nounwind
declare noundef i32 @printf(i8* nocapture noundef readonly, ...) local_unnamed_addr #2

; Function Attrs: mustprogress nofree nounwind willreturn
declare double @sqrt(double) local_unnamed_addr #3

; Function Attrs: argmemonly mustprogress nofree nosync nounwind willreturn
declare void @llvm.lifetime.end.p0i8(i64 immarg, i8* nocapture) #1

; Function Attrs: nofree nounwind
declare noundef i32 @getc(%struct._IO_FILE* nocapture noundef) local_unnamed_addr #2


!llvm.module.flags = !{!0, !1, !2, !3}
!llvm.ident = !{!4}

!0 = !{i32 1, !"wchar_size", i32 4}
!1 = !{i32 7, !"PIC Level", i32 2}
!2 = !{i32 7, !"PIE Level", i32 2}
!3 = !{i32 7, !"uwtable", i32 1}
!4 = !{!"clang version 13.0.0"}
!5 = !{!6, !6, i64 0}
!6 = !{!"float", !7, i64 0}
!7 = !{!"omnipotent char", !8, i64 0}
!8 = !{!"Simple C/C++ TBAA"}
!9 = !{!10, !10, i64 0}
!10 = !{!"any pointer", !7, i64 0}
